target datalayout = "e-m:e-p270:32:32-p271:32:32-p272:64:64-i64:64-i128:128-f80:128-n8:16:32:64-S128"
target triple = "x86_64-pc-linux-gnu"

%"class.LIEF::MemoryStream" = type { %"class.LIEF::BinaryStream", i64, i64, ptr }
%"class.LIEF::BinaryStream" = type { ptr, i64, i8, i32 }

@_ZTVN4LIEF12BinaryStreamE = external unnamed_addr constant { [15 x ptr] }, align 8

; Function Attrs: mustprogress nounwind uwtable
define linkonce_odr hidden void @_ZN4LIEF12BinaryStreamC2ERKS0_(ptr noundef nonnull align 8 dereferenceable(24) %0, ptr noundef nonnull align 8 dereferenceable(24) %1) unnamed_addr #1 comdat align 2 {
  %3 = alloca ptr, align 8
  %4 = alloca ptr, align 8
  store ptr %0, ptr %3, align 8
  store ptr %1, ptr %4, align 8
  %5 = load ptr, ptr %3, align 8
  store ptr getelementptr inbounds ({ [15 x ptr] }, ptr @_ZTVN4LIEF12BinaryStreamE, i32 0, i32 0, i32 2), ptr %5, align 8
  %6 = getelementptr inbounds %"class.LIEF::BinaryStream", ptr %5, i32 0, i32 1
  %7 = load ptr, ptr %4, align 8
  %8 = getelementptr inbounds %"class.LIEF::BinaryStream", ptr %7, i32 0, i32 1
  call void @llvm.memcpy.p0.p0.i64(ptr align 8 %6, ptr align 8 %8, i64 16, i1 false)
  ret void
}

; Function Attrs: mustprogress nounwind uwtable
define hidden void @_ZN4LIEF12MemoryStreamC2EOS0_(ptr noundef nonnull align 8 dereferenceable(48) %0, ptr noundef nonnull align 8 dereferenceable(48) %1) unnamed_addr #1 align 2 {
  %3 = alloca ptr, align 8
  %4 = alloca ptr, align 8
  store ptr %0, ptr %3, align 8
  store ptr %1, ptr %4, align 8
  %5 = load ptr, ptr %3, align 8
  %6 = load ptr, ptr %4, align 8
  call void @_ZN4LIEF12BinaryStreamC2ERKS0_(ptr noundef nonnull align 8 dereferenceable(24) %5, ptr noundef nonnull align 8 dereferenceable(24) %6) #14
  store ptr getelementptr inbounds ({ [15 x ptr] }, ptr @_ZTVN4LIEF12MemoryStreamE, i32 0, i32 0, i32 2), ptr %5, align 8
  %7 = getelementptr inbounds %"class.LIEF::MemoryStream", ptr %5, i32 0, i32 1
  %8 = load ptr, ptr %4, align 8
  %9 = getelementptr inbounds %"class.LIEF::MemoryStream", ptr %8, i32 0, i32 1
  call void @llvm.memcpy.p0.p0.i64(ptr align 8 %7, ptr align 8 %9, i64 24, i1 false)
  ret void
}